ccopy_reg
_reconstructor
p0
(cneat.genome
FFGenome
p1
c__builtin__
object
p2
Ntp3
Rp4
(dp5
S'species_id'
p6
I1
sS'conn_genes'
p7
(dp8
(I33
I66
tp9
g0
(cneat.genes
ConnectionGene
p10
g2
Ntp11
Rp12
(dp13
S'innovation_id'
p14
I89
sS'weight'
p15
F0.11528987824866752
sS'enabled'
p16
I01
sS'out_node_id'
p17
I66
sS'in_node_id'
p18
I33
sbs(I3
I66
tp19
g0
(g10
g2
Ntp20
Rp21
(dp22
g14
I13
sg15
F-1.0
sg16
I01
sg17
I66
sg18
I3
sbs(I65
I67
tp23
g0
(g10
g2
Ntp24
Rp25
(dp26
g14
I62
sg15
F-1.0313409234223396
sg16
I01
sg17
I67
sg18
I65
sbs(I13
I66
tp27
g0
(g10
g2
Ntp28
Rp29
(dp30
g14
I22
sg15
F-1.0
sg16
I01
sg17
I66
sg18
I13
sbs(I36
I67
tp31
g0
(g10
g2
Ntp32
Rp33
(dp34
g14
I64
sg15
F-1.0
sg16
I01
sg17
I67
sg18
I36
sbs(I18
I66
tp35
g0
(g10
g2
Ntp36
Rp37
(dp38
g14
I81
sg15
F0.851141000589911
sg16
I01
sg17
I66
sg18
I18
sbs(I48
I67
tp39
g0
(g10
g2
Ntp40
Rp41
(dp42
g14
I66
sg15
F0.6360140751794159
sg16
I01
sg17
I67
sg18
I48
sbs(I9
I67
tp43
g0
(g10
g2
Ntp44
Rp45
(dp46
g14
I80
sg15
F-1.0
sg16
I01
sg17
I67
sg18
I9
sbs(I28
I67
tp47
g0
(g10
g2
Ntp48
Rp49
(dp50
g14
I61
sg15
F-0.9790988140625037
sg16
I01
sg17
I67
sg18
I28
sbs(I38
I67
tp51
g0
(g10
g2
Ntp52
Rp53
(dp54
g14
I78
sg15
F0.6125335754365291
sg16
I01
sg17
I67
sg18
I38
sbs(I60
I66
tp55
g0
(g10
g2
Ntp56
Rp57
(dp58
g14
I121
sg15
F1.0
sg16
I01
sg17
I66
sg18
I60
sbs(I54
I66
tp59
g0
(g10
g2
Ntp60
Rp61
(dp62
g14
I116
sg15
F0.602828480496766
sg16
I01
sg17
I66
sg18
I54
sbs(I2
I67
tp63
g0
(g10
g2
Ntp64
Rp65
(dp66
g14
I108
sg15
F0.23655064195228093
sg16
I01
sg17
I67
sg18
I2
sbs(I4
I66
tp67
g0
(g10
g2
Ntp68
Rp69
(dp70
g14
I101
sg15
F-0.5048538730963472
sg16
I01
sg17
I66
sg18
I4
sbs(I64
I67
tp71
g0
(g10
g2
Ntp72
Rp73
(dp74
g14
I130
sg15
F0.3605815828919054
sg16
I01
sg17
I67
sg18
I64
sbs(I5
I67
tp75
g0
(g10
g2
Ntp76
Rp77
(dp78
g14
I114
sg15
F-0.6585270204616421
sg16
I01
sg17
I67
sg18
I5
sbs(I65
I66
tp79
g0
(g10
g2
Ntp80
Rp81
(dp82
g14
I8
sg15
F-0.31492688107983846
sg16
I01
sg17
I66
sg18
I65
sbs(I8
I67
tp83
g0
(g10
g2
Ntp84
Rp85
(dp86
g14
I1
sg15
F0.9811407811163692
sg16
I01
sg17
I67
sg18
I8
sbs(I40
I66
tp87
g0
(g10
g2
Ntp88
Rp89
(dp90
g14
I29
sg15
F-1.0
sg16
I01
sg17
I66
sg18
I40
sbs(I15
I66
tp91
g0
(g10
g2
Ntp92
Rp93
(dp94
g14
I21
sg15
F-1.0
sg16
I01
sg17
I66
sg18
I15
sbs(I50
I66
tp95
g0
(g10
g2
Ntp96
Rp97
(dp98
g14
I59
sg15
F-1.0
sg16
I01
sg17
I66
sg18
I50
sbs(I9
I66
tp99
g0
(g10
g2
Ntp100
Rp101
(dp102
g14
I129
sg15
F0.5928573504803849
sg16
I01
sg17
I66
sg18
I9
sbs(I20
I66
tp103
g0
(g10
g2
Ntp104
Rp105
(dp106
g14
I39
sg15
F0.2586449722890985
sg16
I01
sg17
I66
sg18
I20
sbs(I11
I67
tp107
g0
(g10
g2
Ntp108
Rp109
(dp110
g14
I93
sg15
F0.7695902557570152
sg16
I01
sg17
I67
sg18
I11
sbs(I21
I67
tp111
g0
(g10
g2
Ntp112
Rp113
(dp114
g14
I112
sg15
F1.0
sg16
I01
sg17
I67
sg18
I21
sbs(I30
I67
tp115
g0
(g10
g2
Ntp116
Rp117
(dp118
g14
I72
sg15
F1.0
sg16
I01
sg17
I67
sg18
I30
sbs(I24
I67
tp119
g0
(g10
g2
Ntp120
Rp121
(dp122
g14
I100
sg15
F0.9229317187296879
sg16
I00
sg17
I67
sg18
I24
sbs(I34
I67
tp123
g0
(g10
g2
Ntp124
Rp125
(dp126
g14
I125
sg15
F1.0
sg16
I01
sg17
I67
sg18
I34
sbs(I31
I66
tp127
g0
(g10
g2
Ntp128
Rp129
(dp130
g14
I79
sg15
F-0.559901860807507
sg16
I01
sg17
I66
sg18
I31
sbs(I28
I66
tp131
g0
(g10
g2
Ntp132
Rp133
(dp134
g14
I31
sg15
F-0.337368874713565
sg16
I01
sg17
I66
sg18
I28
sbs(I25
I66
tp135
g0
(g10
g2
Ntp136
Rp137
(dp138
g14
I5
sg15
F-0.5746525479842646
sg16
I01
sg17
I66
sg18
I25
sbs(I63
I67
tp139
g0
(g10
g2
Ntp140
Rp141
(dp142
g14
I69
sg15
F-1.0
sg16
I01
sg17
I67
sg18
I63
sbs(I57
I67
tp143
g0
(g10
g2
Ntp144
Rp145
(dp146
g14
I109
sg15
F0.739168193524066
sg16
I01
sg17
I67
sg18
I57
sbs(I5
I66
tp147
g0
(g10
g2
Ntp148
Rp149
(dp150
g14
I111
sg15
F-0.4826500973393026
sg16
I01
sg17
I66
sg18
I5
sbs(I0
I66
tp151
g0
(g10
g2
Ntp152
Rp153
(dp154
g14
I30
sg15
F-0.10817269992190809
sg16
I01
sg17
I66
sg18
I0
sbs(I54
I67
tp155
g0
(g10
g2
Ntp156
Rp157
(dp158
g14
I73
sg15
F1.0
sg16
I01
sg17
I67
sg18
I54
sbs(I1
I67
tp159
g0
(g10
g2
Ntp160
Rp161
(dp162
g14
I42
sg15
F0.3879956386520534
sg16
I01
sg17
I67
sg18
I1
sbs(I50
I67
tp163
g0
(g10
g2
Ntp164
Rp165
(dp166
g14
I47
sg15
F0.8671647772120811
sg16
I01
sg17
I67
sg18
I50
sbs(I41
I66
tp167
g0
(g10
g2
Ntp168
Rp169
(dp170
g14
I110
sg15
F-1.0
sg16
I01
sg17
I66
sg18
I41
sbs(I52
I66
tp171
g0
(g10
g2
Ntp172
Rp173
(dp174
g14
I0
sg15
F1.5121635674847658
sg16
I01
sg17
I66
sg18
I52
sbs(I16
I66
tp175
g0
(g10
g2
Ntp176
Rp177
(dp178
g14
I55
sg15
F0.8500306410979453
sg16
I01
sg17
I66
sg18
I16
sbs(I53
I67
tp179
g0
(g10
g2
Ntp180
Rp181
(dp182
g14
I126
sg15
F0.07983123444084961
sg16
I01
sg17
I67
sg18
I53
sbs(I23
I67
tp183
g0
(g10
g2
Ntp184
Rp185
(dp186
g14
I3
sg15
F0.04544813382715321
sg16
I01
sg17
I67
sg18
I23
sbs(I56
I67
tp187
g0
(g10
g2
Ntp188
Rp189
(dp190
g14
I91
sg15
F-0.5852064320669447
sg16
I01
sg17
I67
sg18
I56
sbs(I6
I66
tp191
g0
(g10
g2
Ntp192
Rp193
(dp194
g14
I119
sg15
F-0.47435952230751605
sg16
I01
sg17
I66
sg18
I6
sbs(I63
I66
tp195
g0
(g10
g2
Ntp196
Rp197
(dp198
g14
I92
sg15
F0.17374932678065974
sg16
I00
sg17
I66
sg18
I63
sbs(I57
I66
tp199
g0
(g10
g2
Ntp200
Rp201
(dp202
g14
I83
sg15
F-1.0
sg16
I01
sg17
I66
sg18
I57
sbs(I27
I66
tp203
g0
(g10
g2
Ntp204
Rp205
(dp206
g14
I20
sg15
F-0.03274114117558538
sg16
I01
sg17
I66
sg18
I27
sbs(I26
I66
tp207
g0
(g10
g2
Ntp208
Rp209
(dp210
g14
I105
sg15
F-0.21674002622795271
sg16
I00
sg17
I66
sg18
I26
sbs(I37
I66
tp211
g0
(g10
g2
Ntp212
Rp213
(dp214
g14
I95
sg15
F0.6046099552462685
sg16
I01
sg17
I66
sg18
I37
sbs(I32
I66
tp215
g0
(g10
g2
Ntp216
Rp217
(dp218
g14
I88
sg15
F-0.36576684759148465
sg16
I01
sg17
I66
sg18
I32
sbs(I7
I66
tp219
g0
(g10
g2
Ntp220
Rp221
(dp222
g14
I44
sg15
F0.2139963874006211
sg16
I01
sg17
I66
sg18
I7
sbs(I1
I66
tp223
g0
(g10
g2
Ntp224
Rp225
(dp226
g14
I124
sg15
F-0.6467663962793241
sg16
I01
sg17
I66
sg18
I1
sbs(I39
I67
tp227
g0
(g10
g2
Ntp228
Rp229
(dp230
g14
I85
sg15
F-1.0
sg16
I01
sg17
I67
sg18
I39
sbs(I3
I67
tp231
g0
(g10
g2
Ntp232
Rp233
(dp234
g14
I120
sg15
F-1.8533446303682586
sg16
I01
sg17
I67
sg18
I3
sbs(I52
I67
tp235
g0
(g10
g2
Ntp236
Rp237
(dp238
g14
I4
sg15
F-0.42580745762694283
sg16
I01
sg17
I67
sg18
I52
sbs(I13
I67
tp239
g0
(g10
g2
Ntp240
Rp241
(dp242
g14
I45
sg15
F-0.1835109568257591
sg16
I01
sg17
I67
sg18
I13
sbs(I53
I66
tp243
g0
(g10
g2
Ntp244
Rp245
(dp246
g14
I37
sg15
F1.0
sg16
I01
sg17
I66
sg18
I53
sbs(I17
I66
tp247
g0
(g10
g2
Ntp248
Rp249
(dp250
g14
I131
sg15
F-0.7752310594742109
sg16
I01
sg17
I66
sg18
I17
sbs(I55
I67
tp251
g0
(g10
g2
Ntp252
Rp253
(dp254
g14
I32
sg15
F0.6849502718011377
sg16
I01
sg17
I67
sg18
I55
sbs(I19
I67
tp255
g0
(g10
g2
Ntp256
Rp257
(dp258
g14
I97
sg15
F-0.4864189487783058
sg16
I01
sg17
I67
sg18
I19
sbs(I2
I66
tp259
g0
(g10
g2
Ntp260
Rp261
(dp262
g14
I25
sg15
F0.2343267357652759
sg16
I01
sg17
I66
sg18
I2
sbs(I29
I66
tp263
g0
(g10
g2
Ntp264
Rp265
(dp266
g14
I67
sg15
F-0.5098388794495776
sg16
I01
sg17
I66
sg18
I29
sbs(I51
I66
tp267
g0
(g10
g2
Ntp268
Rp269
(dp270
g14
I56
sg15
F-0.18604962612815495
sg16
I01
sg17
I66
sg18
I51
sbs(I64
I66
tp271
g0
(g10
g2
Ntp272
Rp273
(dp274
g14
I65
sg15
F1.0
sg16
I01
sg17
I66
sg18
I64
sbs(I39
I66
tp275
g0
(g10
g2
Ntp276
Rp277
(dp278
g14
I7
sg15
F-1.410052682277922
sg16
I01
sg17
I66
sg18
I39
sbssS'parent1_id'
p279
I547
sS'num_inputs'
p280
I66
sS'node_genes'
p281
(dp282
I0
g0
(cneat.genes
NodeGene
p283
g2
Ntp284
Rp285
(dp286
S'activation_type'
p287
S'sigmoid'
p288
sS'bias'
p289
F0.0
sS'type'
p290
S'INPUT'
p291
sS'ID'
p292
I0
sS'response'
p293
F4.924273
sbsI1
g0
(g283
g2
Ntp294
Rp295
(dp296
g287
g288
sg289
F0.0
sg290
g291
sg292
I1
sg293
F4.924273
sbsI2
g0
(g283
g2
Ntp297
Rp298
(dp299
g287
g288
sg289
F0.0
sg290
g291
sg292
I2
sg293
F4.924273
sbsI3
g0
(g283
g2
Ntp300
Rp301
(dp302
g287
g288
sg289
F0.0
sg290
g291
sg292
I3
sg293
F4.924273
sbsI4
g0
(g283
g2
Ntp303
Rp304
(dp305
g287
g288
sg289
F0.0
sg290
g291
sg292
I4
sg293
F4.924273
sbsI5
g0
(g283
g2
Ntp306
Rp307
(dp308
g287
g288
sg289
F0.0
sg290
g291
sg292
I5
sg293
F4.924273
sbsI6
g0
(g283
g2
Ntp309
Rp310
(dp311
g287
g288
sg289
F0.0
sg290
g291
sg292
I6
sg293
F4.924273
sbsI7
g0
(g283
g2
Ntp312
Rp313
(dp314
g287
g288
sg289
F0.0
sg290
g291
sg292
I7
sg293
F4.924273
sbsI8
g0
(g283
g2
Ntp315
Rp316
(dp317
g287
g288
sg289
F0.0
sg290
g291
sg292
I8
sg293
F4.924273
sbsI9
g0
(g283
g2
Ntp318
Rp319
(dp320
g287
g288
sg289
F0.0
sg290
g291
sg292
I9
sg293
F4.924273
sbsI10
g0
(g283
g2
Ntp321
Rp322
(dp323
g287
g288
sg289
F0.0
sg290
g291
sg292
I10
sg293
F4.924273
sbsI11
g0
(g283
g2
Ntp324
Rp325
(dp326
g287
g288
sg289
F0.0
sg290
g291
sg292
I11
sg293
F4.924273
sbsI12
g0
(g283
g2
Ntp327
Rp328
(dp329
g287
g288
sg289
F0.0
sg290
g291
sg292
I12
sg293
F4.924273
sbsI13
g0
(g283
g2
Ntp330
Rp331
(dp332
g287
g288
sg289
F0.0
sg290
g291
sg292
I13
sg293
F4.924273
sbsI14
g0
(g283
g2
Ntp333
Rp334
(dp335
g287
g288
sg289
F0.0
sg290
g291
sg292
I14
sg293
F4.924273
sbsI15
g0
(g283
g2
Ntp336
Rp337
(dp338
g287
g288
sg289
F0.0
sg290
g291
sg292
I15
sg293
F4.924273
sbsI16
g0
(g283
g2
Ntp339
Rp340
(dp341
g287
g288
sg289
F0.0
sg290
g291
sg292
I16
sg293
F4.924273
sbsI17
g0
(g283
g2
Ntp342
Rp343
(dp344
g287
g288
sg289
F0.0
sg290
g291
sg292
I17
sg293
F4.924273
sbsI18
g0
(g283
g2
Ntp345
Rp346
(dp347
g287
g288
sg289
F0.0
sg290
g291
sg292
I18
sg293
F4.924273
sbsI19
g0
(g283
g2
Ntp348
Rp349
(dp350
g287
g288
sg289
F0.0
sg290
g291
sg292
I19
sg293
F4.924273
sbsI20
g0
(g283
g2
Ntp351
Rp352
(dp353
g287
g288
sg289
F0.0
sg290
g291
sg292
I20
sg293
F4.924273
sbsI21
g0
(g283
g2
Ntp354
Rp355
(dp356
g287
g288
sg289
F0.0
sg290
g291
sg292
I21
sg293
F4.924273
sbsI22
g0
(g283
g2
Ntp357
Rp358
(dp359
g287
g288
sg289
F0.0
sg290
g291
sg292
I22
sg293
F4.924273
sbsI23
g0
(g283
g2
Ntp360
Rp361
(dp362
g287
g288
sg289
F0.0
sg290
g291
sg292
I23
sg293
F4.924273
sbsI24
g0
(g283
g2
Ntp363
Rp364
(dp365
g287
g288
sg289
F0.0
sg290
g291
sg292
I24
sg293
F4.924273
sbsI25
g0
(g283
g2
Ntp366
Rp367
(dp368
g287
g288
sg289
F0.0
sg290
g291
sg292
I25
sg293
F4.924273
sbsI26
g0
(g283
g2
Ntp369
Rp370
(dp371
g287
g288
sg289
F0.0
sg290
g291
sg292
I26
sg293
F4.924273
sbsI27
g0
(g283
g2
Ntp372
Rp373
(dp374
g287
g288
sg289
F0.0
sg290
g291
sg292
I27
sg293
F4.924273
sbsI28
g0
(g283
g2
Ntp375
Rp376
(dp377
g287
g288
sg289
F0.0
sg290
g291
sg292
I28
sg293
F4.924273
sbsI29
g0
(g283
g2
Ntp378
Rp379
(dp380
g287
g288
sg289
F0.0
sg290
g291
sg292
I29
sg293
F4.924273
sbsI30
g0
(g283
g2
Ntp381
Rp382
(dp383
g287
g288
sg289
F0.0
sg290
g291
sg292
I30
sg293
F4.924273
sbsI31
g0
(g283
g2
Ntp384
Rp385
(dp386
g287
g288
sg289
F0.0
sg290
g291
sg292
I31
sg293
F4.924273
sbsI32
g0
(g283
g2
Ntp387
Rp388
(dp389
g287
g288
sg289
F0.0
sg290
g291
sg292
I32
sg293
F4.924273
sbsI33
g0
(g283
g2
Ntp390
Rp391
(dp392
g287
g288
sg289
F0.0
sg290
g291
sg292
I33
sg293
F4.924273
sbsI34
g0
(g283
g2
Ntp393
Rp394
(dp395
g287
g288
sg289
F0.0
sg290
g291
sg292
I34
sg293
F4.924273
sbsI35
g0
(g283
g2
Ntp396
Rp397
(dp398
g287
g288
sg289
F0.0
sg290
g291
sg292
I35
sg293
F4.924273
sbsI36
g0
(g283
g2
Ntp399
Rp400
(dp401
g287
g288
sg289
F0.0
sg290
g291
sg292
I36
sg293
F4.924273
sbsI37
g0
(g283
g2
Ntp402
Rp403
(dp404
g287
g288
sg289
F0.0
sg290
g291
sg292
I37
sg293
F4.924273
sbsI38
g0
(g283
g2
Ntp405
Rp406
(dp407
g287
g288
sg289
F0.0
sg290
g291
sg292
I38
sg293
F4.924273
sbsI39
g0
(g283
g2
Ntp408
Rp409
(dp410
g287
g288
sg289
F0.0
sg290
g291
sg292
I39
sg293
F4.924273
sbsI40
g0
(g283
g2
Ntp411
Rp412
(dp413
g287
g288
sg289
F0.0
sg290
g291
sg292
I40
sg293
F4.924273
sbsI41
g0
(g283
g2
Ntp414
Rp415
(dp416
g287
g288
sg289
F0.0
sg290
g291
sg292
I41
sg293
F4.924273
sbsI42
g0
(g283
g2
Ntp417
Rp418
(dp419
g287
g288
sg289
F0.0
sg290
g291
sg292
I42
sg293
F4.924273
sbsI43
g0
(g283
g2
Ntp420
Rp421
(dp422
g287
g288
sg289
F0.0
sg290
g291
sg292
I43
sg293
F4.924273
sbsI44
g0
(g283
g2
Ntp423
Rp424
(dp425
g287
g288
sg289
F0.0
sg290
g291
sg292
I44
sg293
F4.924273
sbsI45
g0
(g283
g2
Ntp426
Rp427
(dp428
g287
g288
sg289
F0.0
sg290
g291
sg292
I45
sg293
F4.924273
sbsI46
g0
(g283
g2
Ntp429
Rp430
(dp431
g287
g288
sg289
F0.0
sg290
g291
sg292
I46
sg293
F4.924273
sbsI47
g0
(g283
g2
Ntp432
Rp433
(dp434
g287
g288
sg289
F0.0
sg290
g291
sg292
I47
sg293
F4.924273
sbsI48
g0
(g283
g2
Ntp435
Rp436
(dp437
g287
g288
sg289
F0.0
sg290
g291
sg292
I48
sg293
F4.924273
sbsI49
g0
(g283
g2
Ntp438
Rp439
(dp440
g287
g288
sg289
F0.0
sg290
g291
sg292
I49
sg293
F4.924273
sbsI50
g0
(g283
g2
Ntp441
Rp442
(dp443
g287
g288
sg289
F0.0
sg290
g291
sg292
I50
sg293
F4.924273
sbsI51
g0
(g283
g2
Ntp444
Rp445
(dp446
g287
g288
sg289
F0.0
sg290
g291
sg292
I51
sg293
F4.924273
sbsI52
g0
(g283
g2
Ntp447
Rp448
(dp449
g287
g288
sg289
F0.0
sg290
g291
sg292
I52
sg293
F4.924273
sbsI53
g0
(g283
g2
Ntp450
Rp451
(dp452
g287
g288
sg289
F0.0
sg290
g291
sg292
I53
sg293
F4.924273
sbsI54
g0
(g283
g2
Ntp453
Rp454
(dp455
g287
g288
sg289
F0.0
sg290
g291
sg292
I54
sg293
F4.924273
sbsI55
g0
(g283
g2
Ntp456
Rp457
(dp458
g287
g288
sg289
F0.0
sg290
g291
sg292
I55
sg293
F4.924273
sbsI56
g0
(g283
g2
Ntp459
Rp460
(dp461
g287
g288
sg289
F0.0
sg290
g291
sg292
I56
sg293
F4.924273
sbsI57
g0
(g283
g2
Ntp462
Rp463
(dp464
g287
g288
sg289
F0.0
sg290
g291
sg292
I57
sg293
F4.924273
sbsI58
g0
(g283
g2
Ntp465
Rp466
(dp467
g287
g288
sg289
F0.0
sg290
g291
sg292
I58
sg293
F4.924273
sbsI59
g0
(g283
g2
Ntp468
Rp469
(dp470
g287
g288
sg289
F0.0
sg290
g291
sg292
I59
sg293
F4.924273
sbsI60
g0
(g283
g2
Ntp471
Rp472
(dp473
g287
g288
sg289
F0.0
sg290
g291
sg292
I60
sg293
F4.924273
sbsI61
g0
(g283
g2
Ntp474
Rp475
(dp476
g287
g288
sg289
F0.0
sg290
g291
sg292
I61
sg293
F4.924273
sbsI62
g0
(g283
g2
Ntp477
Rp478
(dp479
g287
g288
sg289
F0.0
sg290
g291
sg292
I62
sg293
F4.924273
sbsI63
g0
(g283
g2
Ntp480
Rp481
(dp482
g287
g288
sg289
F0.0
sg290
g291
sg292
I63
sg293
F4.924273
sbsI64
g0
(g283
g2
Ntp483
Rp484
(dp485
g287
g288
sg289
F0.0
sg290
g291
sg292
I64
sg293
F4.924273
sbsI65
g0
(g283
g2
Ntp486
Rp487
(dp488
g287
g288
sg289
F0.0
sg290
g291
sg292
I65
sg293
F4.924273
sbsI66
g0
(g283
g2
Ntp489
Rp490
(dp491
g287
S'tanh'
p492
sg289
F-0.4908557635168977
sg290
S'OUTPUT'
p493
sg292
I66
sg293
F0.196922132159911
sbsI67
g0
(g283
g2
Ntp494
Rp495
(dp496
g287
g492
sg289
F0.8873926926002551
sg290
g493
sg292
I67
sg293
F-0.23981565874648936
sbssS'node_order'
p497
(lp498
sS'num_outputs'
p499
I2
sS'fitness'
p500
F17165.182697057724
sS'parent2_id'
p501
I549
sS'config'
p502
g0
(cneat.config
Config
p503
g2
Ntp504
Rp505
(dp506
S'weight_stdev'
p507
F0.9
sS'disjoint_coefficient'
p508
F1.0
sS'prob_delete_node'
p509
F0.05
sS'output_nodes'
p510
I2
sS'elitism'
p511
I2
sS'stagnation_type'
p512
cneat.stagnation
FixedStagnation
p513
sS'weight_mutation_power'
p514
F0.5
sS'excess_coefficient'
p515
F1.0
sS'compatibility_threshold'
p516
F3.0
sS'pop_size'
p517
I50
sS'weight_coefficient'
p518
F1.0
sS'feedforward'
p519
I01
sS'prob_add_node'
p520
F0.1
sS'genotype'
p521
g1
sS'prob_mutate_activation'
p522
F0.0
sS'conn_gene_type'
p523
g10
sS'connection_fraction'
p524
F0.5
sS'activation_functions'
p525
(lp526
g492
asS'species_fitness_func'
p527
cneat.config
species_mean_fitness
p528
sS'response_mutation_power'
p529
F0.5
sS'max_stagnation'
p530
I10
sS'prob_add_conn'
p531
F0.1
sS'survival_threshold'
p532
F0.1
sS'prob_mutate_bias'
p533
F0.8
sS'reproduction_type'
p534
cneat.reproduction
DefaultReproduction
p535
sS'node_gene_type'
p536
g283
sS'initial_connection'
p537
S'partial'
p538
sS'input_nodes'
p539
I66
sS'prob_replace_weight'
p540
F0.1
sS'checkpoint_generation'
p541
NsS'hidden_nodes'
p542
I0
sS'report'
p543
I01
sS'prob_mutate_response'
p544
F0.8
sS'max_weight'
p545
F1.0
sS'min_weight'
p546
F-1.0
sS'prob_toggle_link'
p547
F0.01
sS'save_best'
p548
I00
sS'max_fitness_threshold'
p549
F300.0
sS'species_fitness'
p550
S'mean'
p551
sS'bias_mutation_power'
p552
F0.5
sS'prob_delete_conn'
p553
F0.05
sS'reset_on_extinction'
p554
I01
sS'checkpoint_interval'
p555
NsS'prob_mutate_weight'
p556
F0.8
sbsg292
I597
sb.